target datalayout = "e-m:e-p270:32:32-p271:32:32-p272:64:64-i64:64-i128:128-f80:128-n8:16:32:64-S128"
target triple = "x86_64-pc-linux-gnu"

%struct.cgltf_extras = type { i64, i64, ptr }
%struct.cgltf_buffer = type { ptr, i64, ptr, ptr, i32, %struct.cgltf_extras, i64, ptr }
%struct.cgltf_accessor = type { ptr, i32, i32, i32, i64, i64, i64, ptr, i32, [16 x float], i32, [16 x float], i32, %struct.cgltf_accessor_sparse, %struct.cgltf_extras, i64, ptr }
%struct.cgltf_accessor_sparse = type { i64, ptr, i64, i32, ptr, i64 }
%struct.cgltf_buffer_view = type { ptr, ptr, i64, i64, i64, i32, ptr, i32, %struct.cgltf_meshopt_compression, %struct.cgltf_extras, i64, ptr }
%struct.cgltf_meshopt_compression = type { ptr, i64, i64, i64, i64, i32, i32 }

; Function Attrs: nounwind uwtable
define internal i32 @cgltf_component_read_uint(ptr noundef %0, i32 noundef %1) #0 {
  %3 = alloca i32, align 4
  %4 = alloca ptr, align 8
  %5 = alloca i32, align 4
  store ptr %0, ptr %4, align 8
  store i32 %1, ptr %5, align 4
  %6 = load i32, ptr %5, align 4
  switch i32 %6, label %26 [
    i32 1, label %7
    i32 2, label %11
    i32 3, label %15
    i32 4, label %19
    i32 5, label %23
  ]

7:                                                ; preds = %2
  %8 = load ptr, ptr %4, align 8
  %9 = load i8, ptr %8, align 1
  %10 = sext i8 %9 to i32
  store i32 %10, ptr %3, align 4
  br label %27

11:                                               ; preds = %2
  %12 = load ptr, ptr %4, align 8
  %13 = load i8, ptr %12, align 1
  %14 = zext i8 %13 to i32
  store i32 %14, ptr %3, align 4
  br label %27

15:                                               ; preds = %2
  %16 = load ptr, ptr %4, align 8
  %17 = load i16, ptr %16, align 2
  %18 = sext i16 %17 to i32
  store i32 %18, ptr %3, align 4
  br label %27

19:                                               ; preds = %2
  %20 = load ptr, ptr %4, align 8
  %21 = load i16, ptr %20, align 2
  %22 = zext i16 %21 to i32
  store i32 %22, ptr %3, align 4
  br label %27

23:                                               ; preds = %2
  %24 = load ptr, ptr %4, align 8
  %25 = load i32, ptr %24, align 4
  store i32 %25, ptr %3, align 4
  br label %27

26:                                               ; preds = %2
  store i32 0, ptr %3, align 4
  br label %27

27:                                               ; preds = %26, %23, %19, %15, %11, %7
  %28 = load i32, ptr %3, align 4
  ret i32 %28
}

; Function Attrs: nounwind uwtable
define hidden i64 @cgltf_component_size(i32 noundef %0) #0 {
  %2 = alloca i64, align 8
  %3 = alloca i32, align 4
  store i32 %0, ptr %3, align 4
  %4 = load i32, ptr %3, align 4
  switch i32 %4, label %9 [
    i32 1, label %5
    i32 2, label %5
    i32 3, label %6
    i32 4, label %6
    i32 5, label %7
    i32 6, label %7
    i32 0, label %8
  ]

5:                                                ; preds = %1, %1
  store i64 1, ptr %2, align 8
  br label %10

6:                                                ; preds = %1, %1
  store i64 2, ptr %2, align 8
  br label %10

7:                                                ; preds = %1, %1
  store i64 4, ptr %2, align 8
  br label %10

8:                                                ; preds = %1
  br label %9

9:                                                ; preds = %1, %8
  store i64 0, ptr %2, align 8
  br label %10

10:                                               ; preds = %9, %7, %6, %5
  %11 = load i64, ptr %2, align 8
  ret i64 %11
}

; Function Attrs: nounwind uwtable
define hidden i64 @cgltf_num_components(i32 noundef %0) #0 {
  %2 = alloca i64, align 8
  %3 = alloca i32, align 4
  store i32 %0, ptr %3, align 4
  %4 = load i32, ptr %3, align 4
  switch i32 %4, label %12 [
    i32 2, label %5
    i32 3, label %6
    i32 4, label %7
    i32 5, label %8
    i32 6, label %9
    i32 7, label %10
    i32 0, label %11
    i32 1, label %11
  ]

5:                                                ; preds = %1
  store i64 2, ptr %2, align 8
  br label %13

6:                                                ; preds = %1
  store i64 3, ptr %2, align 8
  br label %13

7:                                                ; preds = %1
  store i64 4, ptr %2, align 8
  br label %13

8:                                                ; preds = %1
  store i64 4, ptr %2, align 8
  br label %13

9:                                                ; preds = %1
  store i64 9, ptr %2, align 8
  br label %13

10:                                               ; preds = %1
  store i64 16, ptr %2, align 8
  br label %13

11:                                               ; preds = %1, %1
  br label %12

12:                                               ; preds = %1, %11
  store i64 1, ptr %2, align 8
  br label %13

13:                                               ; preds = %12, %10, %9, %8, %7, %6, %5
  %14 = load i64, ptr %2, align 8
  ret i64 %14
}

; Function Attrs: nounwind uwtable
define internal i32 @cgltf_element_read_uint(ptr noundef %0, i32 noundef %1, i32 noundef %2, ptr noundef %3, i64 noundef %4) #0 {
  %6 = alloca i32, align 4
  %7 = alloca ptr, align 8
  %8 = alloca i32, align 4
  %9 = alloca i32, align 4
  %10 = alloca ptr, align 8
  %11 = alloca i64, align 8
  %12 = alloca i64, align 8
  %13 = alloca i32, align 4
  %14 = alloca i64, align 8
  %15 = alloca i64, align 8
  store ptr %0, ptr %7, align 8
  store i32 %1, ptr %8, align 4
  store i32 %2, ptr %9, align 4
  store ptr %3, ptr %10, align 8
  store i64 %4, ptr %11, align 8
  call void @llvm.lifetime.start.p0(i64 8, ptr %12) #16
  %16 = load i32, ptr %8, align 4
  %17 = call i64 @cgltf_num_components(i32 noundef %16)
  store i64 %17, ptr %12, align 8
  %18 = load i64, ptr %11, align 8
  %19 = load i64, ptr %12, align 8
  %20 = icmp ult i64 %18, %19
  br i1 %20, label %21, label %22

21:                                               ; preds = %5
  store i32 0, ptr %6, align 4
  store i32 1, ptr %13, align 4
  br label %55

22:                                               ; preds = %5
  %23 = load i32, ptr %8, align 4
  %24 = icmp eq i32 %23, 5
  br i1 %24, label %31, label %25

25:                                               ; preds = %22
  %26 = load i32, ptr %8, align 4
  %27 = icmp eq i32 %26, 6
  br i1 %27, label %31, label %28

28:                                               ; preds = %25
  %29 = load i32, ptr %8, align 4
  %30 = icmp eq i32 %29, 7
  br i1 %30, label %31, label %32

31:                                               ; preds = %28, %25, %22
  store i32 0, ptr %6, align 4
  store i32 1, ptr %13, align 4
  br label %55

32:                                               ; preds = %28
  call void @llvm.lifetime.start.p0(i64 8, ptr %14) #16
  %33 = load i32, ptr %9, align 4
  %34 = call i64 @cgltf_component_size(i32 noundef %33)
  store i64 %34, ptr %14, align 8
  call void @llvm.lifetime.start.p0(i64 8, ptr %15) #16
  store i64 0, ptr %15, align 8
  br label %35

35:                                               ; preds = %51, %32
  %36 = load i64, ptr %15, align 8
  %37 = load i64, ptr %12, align 8
  %38 = icmp ult i64 %36, %37
  br i1 %38, label %40, label %39

39:                                               ; preds = %35
  store i32 2, ptr %13, align 4
  call void @llvm.lifetime.end.p0(i64 8, ptr %15) #16
  br label %54

40:                                               ; preds = %35
  %41 = load ptr, ptr %7, align 8
  %42 = load i64, ptr %14, align 8
  %43 = load i64, ptr %15, align 8
  %44 = mul i64 %42, %43
  %45 = getelementptr inbounds nuw i8, ptr %41, i64 %44
  %46 = load i32, ptr %9, align 4
  %47 = call i32 @cgltf_component_read_uint(ptr noundef %45, i32 noundef %46)
  %48 = load ptr, ptr %10, align 8
  %49 = load i64, ptr %15, align 8
  %50 = getelementptr inbounds nuw i32, ptr %48, i64 %49
  store i32 %47, ptr %50, align 4
  br label %51

51:                                               ; preds = %40
  %52 = load i64, ptr %15, align 8
  %53 = add i64 %52, 1
  store i64 %53, ptr %15, align 8
  br label %35

54:                                               ; preds = %39
  store i32 1, ptr %6, align 4
  store i32 1, ptr %13, align 4
  call void @llvm.lifetime.end.p0(i64 8, ptr %14) #16
  br label %55

55:                                               ; preds = %54, %31, %21
  call void @llvm.lifetime.end.p0(i64 8, ptr %12) #16
  %56 = load i32, ptr %6, align 4
  ret i32 %56
}

; Function Attrs: nounwind uwtable
define hidden ptr @cgltf_buffer_view_data(ptr noundef %0) #0 {
  %2 = alloca ptr, align 8
  %3 = alloca ptr, align 8
  %4 = alloca ptr, align 8
  store ptr %0, ptr %3, align 8
  %5 = load ptr, ptr %3, align 8
  %6 = getelementptr inbounds nuw %struct.cgltf_buffer_view, ptr %5, i32 0, i32 6
  %7 = load ptr, ptr %6, align 8
  %8 = icmp ne ptr %7, null
  br i1 %8, label %9, label %13

9:                                                ; preds = %1
  %10 = load ptr, ptr %3, align 8
  %11 = getelementptr inbounds nuw %struct.cgltf_buffer_view, ptr %10, i32 0, i32 6
  %12 = load ptr, ptr %11, align 8
  store ptr %12, ptr %2, align 8
  br label %33

13:                                               ; preds = %1
  %14 = load ptr, ptr %3, align 8
  %15 = getelementptr inbounds nuw %struct.cgltf_buffer_view, ptr %14, i32 0, i32 1
  %16 = load ptr, ptr %15, align 8
  %17 = getelementptr inbounds nuw %struct.cgltf_buffer, ptr %16, i32 0, i32 3
  %18 = load ptr, ptr %17, align 8
  %19 = icmp ne ptr %18, null
  br i1 %19, label %21, label %20

20:                                               ; preds = %13
  store ptr null, ptr %2, align 8
  br label %33

21:                                               ; preds = %13
  call void @llvm.lifetime.start.p0(i64 8, ptr %4) #16
  %22 = load ptr, ptr %3, align 8
  %23 = getelementptr inbounds nuw %struct.cgltf_buffer_view, ptr %22, i32 0, i32 1
  %24 = load ptr, ptr %23, align 8
  %25 = getelementptr inbounds nuw %struct.cgltf_buffer, ptr %24, i32 0, i32 3
  %26 = load ptr, ptr %25, align 8
  store ptr %26, ptr %4, align 8
  %27 = load ptr, ptr %3, align 8
  %28 = getelementptr inbounds nuw %struct.cgltf_buffer_view, ptr %27, i32 0, i32 2
  %29 = load i64, ptr %28, align 8
  %30 = load ptr, ptr %4, align 8
  %31 = getelementptr inbounds nuw i8, ptr %30, i64 %29
  store ptr %31, ptr %4, align 8
  %32 = load ptr, ptr %4, align 8
  store ptr %32, ptr %2, align 8
  call void @llvm.lifetime.end.p0(i64 8, ptr %4) #16
  br label %33

33:                                               ; preds = %21, %20, %9
  %34 = load ptr, ptr %2, align 8
  ret ptr %34
}

; Function Attrs: nounwind uwtable
define hidden i32 @cgltf_accessor_read_uint(ptr noundef %0, i64 noundef %1, ptr noundef %2, i64 noundef %3) #0 {
  %5 = alloca i32, align 4
  %6 = alloca ptr, align 8
  %7 = alloca i64, align 8
  %8 = alloca ptr, align 8
  %9 = alloca i64, align 8
  %10 = alloca ptr, align 8
  %11 = alloca i32, align 4
  store ptr %0, ptr %6, align 8
  store i64 %1, ptr %7, align 8
  store ptr %2, ptr %8, align 8
  store i64 %3, ptr %9, align 8
  %12 = load ptr, ptr %6, align 8
  %13 = getelementptr inbounds nuw %struct.cgltf_accessor, ptr %12, i32 0, i32 12
  %14 = load i32, ptr %13, align 8
  %15 = icmp ne i32 %14, 0
  br i1 %15, label %16, label %17

16:                                               ; preds = %4
  store i32 0, ptr %5, align 4
  br label %57

17:                                               ; preds = %4
  %18 = load ptr, ptr %6, align 8
  %19 = getelementptr inbounds nuw %struct.cgltf_accessor, ptr %18, i32 0, i32 7
  %20 = load ptr, ptr %19, align 8
  %21 = icmp eq ptr %20, null
  br i1 %21, label %22, label %26

22:                                               ; preds = %17
  %23 = load ptr, ptr %8, align 8
  %24 = load i64, ptr %9, align 8
  %25 = mul i64 %24, 4
  call void @llvm.memset.p0.i64(ptr align 4 %23, i8 0, i64 %25, i1 false)
  store i32 1, ptr %5, align 4
  br label %57

26:                                               ; preds = %17
  call void @llvm.lifetime.start.p0(i64 8, ptr %10) #16
  %27 = load ptr, ptr %6, align 8
  %28 = getelementptr inbounds nuw %struct.cgltf_accessor, ptr %27, i32 0, i32 7
  %29 = load ptr, ptr %28, align 8
  %30 = call ptr @cgltf_buffer_view_data(ptr noundef %29)
  store ptr %30, ptr %10, align 8
  %31 = load ptr, ptr %10, align 8
  %32 = icmp eq ptr %31, null
  br i1 %32, label %33, label %34

33:                                               ; preds = %26
  store i32 0, ptr %5, align 4
  store i32 1, ptr %11, align 4
  br label %56

34:                                               ; preds = %26
  %35 = load ptr, ptr %6, align 8
  %36 = getelementptr inbounds nuw %struct.cgltf_accessor, ptr %35, i32 0, i32 4
  %37 = load i64, ptr %36, align 8
  %38 = load ptr, ptr %6, align 8
  %39 = getelementptr inbounds nuw %struct.cgltf_accessor, ptr %38, i32 0, i32 6
  %40 = load i64, ptr %39, align 8
  %41 = load i64, ptr %7, align 8
  %42 = mul i64 %40, %41
  %43 = add i64 %37, %42
  %44 = load ptr, ptr %10, align 8
  %45 = getelementptr inbounds nuw i8, ptr %44, i64 %43
  store ptr %45, ptr %10, align 8
  %46 = load ptr, ptr %10, align 8
  %47 = load ptr, ptr %6, align 8
  %48 = getelementptr inbounds nuw %struct.cgltf_accessor, ptr %47, i32 0, i32 3
  %49 = load i32, ptr %48, align 8
  %50 = load ptr, ptr %6, align 8
  %51 = getelementptr inbounds nuw %struct.cgltf_accessor, ptr %50, i32 0, i32 1
  %52 = load i32, ptr %51, align 8
  %53 = load ptr, ptr %8, align 8
  %54 = load i64, ptr %9, align 8
  %55 = call i32 @cgltf_element_read_uint(ptr noundef %46, i32 noundef %49, i32 noundef %52, ptr noundef %53, i64 noundef %54)
  store i32 %55, ptr %5, align 4
  store i32 1, ptr %11, align 4
  br label %56

56:                                               ; preds = %34, %33
  call void @llvm.lifetime.end.p0(i64 8, ptr %10) #16
  br label %57

57:                                               ; preds = %56, %22, %16
  %58 = load i32, ptr %5, align 4
  ret i32 %58
}