; Function Attrs: nofree norecurse nosync nounwind memory(read, argmem: readwrite, inaccessiblemem: none) uwtable
define hidden range(i32 0, 2) i32 @cgltf_accessor_read_uint(ptr noundef readonly captures(none) %0, i64 noundef %1, ptr noundef writeonly captures(none) %2, i64 noundef %3) local_unnamed_addr #21 {
  %5 = getelementptr inbounds nuw i8, ptr %0, i64 192
  %6 = load i32, ptr %5, align 8
  %.not = icmp eq i32 %6, 0
  br i1 %.not, label %7, label %cgltf_element_read_uint.exit

7:                                                ; preds = %4
  %8 = getelementptr inbounds nuw i8, ptr %0, i64 48
  %9 = load ptr, ptr %8, align 8
  %10 = icmp eq ptr %9, null
  br i1 %10, label %cgltf_element_read_uint.exit.sink.split, label %11

11:                                               ; preds = %7
  %12 = getelementptr inbounds nuw i8, ptr %9, i64 48
  %13 = load ptr, ptr %12, align 8
  %.not.i = icmp eq ptr %13, null
  br i1 %.not.i, label %14, label %cgltf_buffer_view_data.exit.thread18

14:                                               ; preds = %11
  %15 = getelementptr inbounds nuw i8, ptr %9, i64 8
  %16 = load ptr, ptr %15, align 8
  %17 = getelementptr inbounds nuw i8, ptr %16, i64 24
  %18 = load ptr, ptr %17, align 8
  %.not10.i = icmp eq ptr %18, null
  br i1 %.not10.i, label %cgltf_element_read_uint.exit, label %cgltf_buffer_view_data.exit

cgltf_buffer_view_data.exit:                      ; preds = %14
  %19 = getelementptr inbounds nuw i8, ptr %9, i64 16
  %20 = load i64, ptr %19, align 8
  %21 = getelementptr inbounds nuw i8, ptr %18, i64 %20
  br label %cgltf_buffer_view_data.exit.thread18

cgltf_buffer_view_data.exit.thread18:             ; preds = %cgltf_buffer_view_data.exit, %11
  %.0.i20 = phi ptr [ %21, %cgltf_buffer_view_data.exit ], [ %13, %11 ]
  %22 = getelementptr inbounds nuw i8, ptr %0, i64 24
  %23 = load i64, ptr %22, align 8
  %24 = getelementptr inbounds nuw i8, ptr %0, i64 40
  %25 = load i64, ptr %24, align 8
  %26 = mul i64 %25, %1
  %27 = getelementptr i8, ptr %.0.i20, i64 %23
  %28 = getelementptr i8, ptr %27, i64 %26
  %29 = getelementptr inbounds nuw i8, ptr %0, i64 16
  %30 = load i32, ptr %29, align 8
  %31 = getelementptr inbounds nuw i8, ptr %0, i64 8
  %32 = load i32, ptr %31, align 8
  switch i32 %30, label %35 [
    i32 2, label %cgltf_num_components.exit.i
    i32 3, label %33
    i32 4, label %34
    i32 5, label %34
    i32 6, label %cgltf_element_read_uint.exit
    i32 7, label %cgltf_element_read_uint.exit
  ]

33:                                               ; preds = %cgltf_buffer_view_data.exit.thread18
  br label %cgltf_num_components.exit.i

34:                                               ; preds = %cgltf_buffer_view_data.exit.thread18, %cgltf_buffer_view_data.exit.thread18
  br label %cgltf_num_components.exit.i

35:                                               ; preds = %cgltf_buffer_view_data.exit.thread18
  br label %cgltf_num_components.exit.i

cgltf_num_components.exit.i:                      ; preds = %35, %34, %33, %cgltf_buffer_view_data.exit.thread18
  %.0.i.i = phi i64 [ 1, %35 ], [ 4, %34 ], [ 3, %33 ], [ 2, %cgltf_buffer_view_data.exit.thread18 ]
  %36 = icmp ult i64 %3, %.0.i.i
  %37 = add i32 %30, -5
  %or.cond3.i = icmp ult i32 %37, 3
  %or.cond.i = or i1 %or.cond3.i, %36
  br i1 %or.cond.i, label %cgltf_element_read_uint.exit, label %38

38:                                               ; preds = %cgltf_num_components.exit.i
  %switch.tableidx = add i32 %32, -1
  %39 = icmp ult i32 %switch.tableidx, 6
  br i1 %39, label %switch.lookup, label %cgltf_component_size.exit.i

switch.lookup:                                    ; preds = %38
  %40 = zext nneg i32 %switch.tableidx to i64
  %switch.gep = getelementptr inbounds nuw [6 x i64], ptr @switch.table.cgltf_accessor_unpack_indices, i64 0, i64 %40
  %switch.load = load i64, ptr %switch.gep, align 8
  br label %cgltf_component_size.exit.i

cgltf_component_size.exit.i:                      ; preds = %38, %switch.lookup
  %.0.i21.i = phi i64 [ %switch.load, %switch.lookup ], [ 0, %38 ]
  switch i32 %32, label %cgltf_element_read_uint.exit.sink.split [
    i32 1, label %cgltf_component_read_uint.exit.us.i
    i32 2, label %cgltf_component_read_uint.exit.us29.i
    i32 3, label %cgltf_component_read_uint.exit.us33.i
    i32 4, label %cgltf_component_read_uint.exit.us37.i
    i32 5, label %cgltf_component_read_uint.exit.us41.i
  ]

cgltf_component_read_uint.exit.us.i:              ; preds = %cgltf_component_size.exit.i, %cgltf_component_read_uint.exit.us.i
  %.026.us.i = phi i64 [ %46, %cgltf_component_read_uint.exit.us.i ], [ 0, %cgltf_component_size.exit.i ]
  %41 = mul nuw nsw i64 %.026.us.i, %.0.i21.i
  %42 = getelementptr inbounds nuw i8, ptr %28, i64 %41
  %43 = load i8, ptr %42, align 1
  %44 = sext i8 %43 to i32
  %45 = getelementptr inbounds nuw i32, ptr %2, i64 %.026.us.i
  store i32 %44, ptr %45, align 4
  %46 = add nuw nsw i64 %.026.us.i, 1
  %exitcond51.not.i = icmp eq i64 %46, %.0.i.i
  br i1 %exitcond51.not.i, label %cgltf_element_read_uint.exit, label %cgltf_component_read_uint.exit.us.i

cgltf_component_read_uint.exit.us29.i:            ; preds = %cgltf_component_size.exit.i, %cgltf_component_read_uint.exit.us29.i
  %.026.us28.i = phi i64 [ %52, %cgltf_component_read_uint.exit.us29.i ], [ 0, %cgltf_component_size.exit.i ]
  %47 = mul nuw nsw i64 %.026.us28.i, %.0.i21.i
  %48 = getelementptr inbounds nuw i8, ptr %28, i64 %47
  %49 = load i8, ptr %48, align 1
  %50 = zext i8 %49 to i32
  %51 = getelementptr inbounds nuw i32, ptr %2, i64 %.026.us28.i
  store i32 %50, ptr %51, align 4
  %52 = add nuw nsw i64 %.026.us28.i, 1
  %exitcond50.not.i = icmp eq i64 %52, %.0.i.i
  br i1 %exitcond50.not.i, label %cgltf_element_read_uint.exit, label %cgltf_component_read_uint.exit.us29.i

cgltf_component_read_uint.exit.us33.i:            ; preds = %cgltf_component_size.exit.i, %cgltf_component_read_uint.exit.us33.i
  %.026.us32.i = phi i64 [ %58, %cgltf_component_read_uint.exit.us33.i ], [ 0, %cgltf_component_size.exit.i ]
  %53 = mul nuw nsw i64 %.026.us32.i, %.0.i21.i
  %54 = getelementptr inbounds nuw i8, ptr %28, i64 %53
  %55 = load i16, ptr %54, align 2
  %56 = sext i16 %55 to i32
  %57 = getelementptr inbounds nuw i32, ptr %2, i64 %.026.us32.i
  store i32 %56, ptr %57, align 4
  %58 = add nuw nsw i64 %.026.us32.i, 1
  %exitcond49.not.i = icmp eq i64 %58, %.0.i.i
  br i1 %exitcond49.not.i, label %cgltf_element_read_uint.exit, label %cgltf_component_read_uint.exit.us33.i

cgltf_component_read_uint.exit.us37.i:            ; preds = %cgltf_component_size.exit.i, %cgltf_component_read_uint.exit.us37.i
  %.026.us36.i = phi i64 [ %64, %cgltf_component_read_uint.exit.us37.i ], [ 0, %cgltf_component_size.exit.i ]
  %59 = mul nuw nsw i64 %.026.us36.i, %.0.i21.i
  %60 = getelementptr inbounds nuw i8, ptr %28, i64 %59
  %61 = load i16, ptr %60, align 2
  %62 = zext i16 %61 to i32
  %63 = getelementptr inbounds nuw i32, ptr %2, i64 %.026.us36.i
  store i32 %62, ptr %63, align 4
  %64 = add nuw nsw i64 %.026.us36.i, 1
  %exitcond48.not.i = icmp eq i64 %64, %.0.i.i
  br i1 %exitcond48.not.i, label %cgltf_element_read_uint.exit, label %cgltf_component_read_uint.exit.us37.i

cgltf_component_read_uint.exit.us41.i:            ; preds = %cgltf_component_size.exit.i, %cgltf_component_read_uint.exit.us41.i
  %.026.us40.i = phi i64 [ %69, %cgltf_component_read_uint.exit.us41.i ], [ 0, %cgltf_component_size.exit.i ]
  %65 = mul nuw nsw i64 %.026.us40.i, %.0.i21.i
  %66 = getelementptr inbounds nuw i8, ptr %28, i64 %65
  %67 = load i32, ptr %66, align 4
  %68 = getelementptr inbounds nuw i32, ptr %2, i64 %.026.us40.i
  store i32 %67, ptr %68, align 4
  %69 = add nuw nsw i64 %.026.us40.i, 1
  %exitcond.not.i = icmp eq i64 %69, %.0.i.i
  br i1 %exitcond.not.i, label %cgltf_element_read_uint.exit, label %cgltf_component_read_uint.exit.us41.i

cgltf_element_read_uint.exit.sink.split:          ; preds = %cgltf_component_size.exit.i, %7
  %.0.i.i.sink = phi i64 [ %3, %7 ], [ %.0.i.i, %cgltf_component_size.exit.i ]
  %70 = shl i64 %.0.i.i.sink, 2
  tail call void @llvm.memset.p0.i64(ptr align 4 %2, i8 0, i64 %70, i1 false)
  br label %cgltf_element_read_uint.exit

cgltf_element_read_uint.exit:                     ; preds = %cgltf_component_read_uint.exit.us41.i, %cgltf_component_read_uint.exit.us37.i, %cgltf_component_read_uint.exit.us33.i, %cgltf_component_read_uint.exit.us29.i, %cgltf_component_read_uint.exit.us.i, %cgltf_element_read_uint.exit.sink.split, %14, %cgltf_num_components.exit.i, %cgltf_buffer_view_data.exit.thread18, %cgltf_buffer_view_data.exit.thread18, %4
  %.0 = phi i32 [ 0, %4 ], [ 0, %cgltf_num_components.exit.i ], [ 0, %cgltf_buffer_view_data.exit.thread18 ], [ 0, %cgltf_buffer_view_data.exit.thread18 ], [ 0, %14 ], [ 1, %cgltf_element_read_uint.exit.sink.split ], [ 1, %cgltf_component_read_uint.exit.us.i ], [ 1, %cgltf_component_read_uint.exit.us29.i ], [ 1, %cgltf_component_read_uint.exit.us33.i ], [ 1, %cgltf_component_read_uint.exit.us37.i ], [ 1, %cgltf_component_read_uint.exit.us41.i ]
  ret i32 %.0
}